target datalayout = "e-m:e-p270:32:32-p271:32:32-p272:64:64-i64:64-i128:128-f80:128-n8:16:32:64-S128"
target triple = "x86_64-pc-linux-gnu"

%struct._object = type { %union.anon, ptr }
%union.anon = type { i64 }
%struct.pysqlite_Connection = type { %struct._object, ptr, ptr, i32, ptr, i32, i32, i32, i64, ptr, ptr, ptr, i32, ptr, ptr, ptr, ptr, ptr, ptr, ptr, ptr, ptr, ptr, ptr, ptr, ptr, ptr, ptr }
%struct.pysqlite_Blob = type { %struct._object, ptr, ptr, i32, ptr }
%struct.pysqlite_state = type { ptr, ptr, ptr, ptr, ptr, ptr, ptr, ptr, ptr, ptr, ptr, ptr, ptr, i32, i32, ptr, ptr, ptr, ptr, ptr, ptr, ptr, ptr, ptr, ptr, ptr, ptr, ptr, ptr }

@.str.7 = private unnamed_addr constant [5 x i8] c"seek\00", align 1
@_Py_NoneStruct = external global %struct._object, align 8
@.str.11 = private unnamed_addr constant [33 x i8] c"Cannot operate on a closed blob.\00", align 1
@PyExc_ValueError = external global ptr, align 8
@.str.12 = private unnamed_addr constant [60 x i8] c"'origin' should be os.SEEK_SET, os.SEEK_CUR, or os.SEEK_END\00", align 1
@.str.13 = private unnamed_addr constant [25 x i8] c"offset out of blob range\00", align 1
@PyExc_OverflowError = external global ptr, align 8
@.str.14 = private unnamed_addr constant [32 x i8] c"seek offset results in overflow\00", align 1

; Function Attrs: nounwind uwtable
define internal i32 @check_blob(ptr noundef %0) #0 {
  %2 = alloca i32, align 4
  %3 = alloca ptr, align 8
  %4 = alloca ptr, align 8
  store ptr %0, ptr %3, align 8, !tbaa !3
  %5 = load ptr, ptr %3, align 8, !tbaa !3
  %6 = getelementptr inbounds nuw %struct.pysqlite_Blob, ptr %5, i32 0, i32 1
  %7 = load ptr, ptr %6, align 8, !tbaa !45
  %8 = call i32 @pysqlite_check_connection(ptr noundef %7)
  %9 = icmp ne i32 %8, 0
  br i1 %9, label %10, label %16

10:                                               ; preds = %1
  %11 = load ptr, ptr %3, align 8, !tbaa !3
  %12 = getelementptr inbounds nuw %struct.pysqlite_Blob, ptr %11, i32 0, i32 1
  %13 = load ptr, ptr %12, align 8, !tbaa !45
  %14 = call i32 @pysqlite_check_thread(ptr noundef %13)
  %15 = icmp ne i32 %14, 0
  br i1 %15, label %17, label %16

16:                                               ; preds = %10, %1
  store i32 0, ptr %2, align 4
  br label %32

17:                                               ; preds = %10
  %18 = load ptr, ptr %3, align 8, !tbaa !3
  %19 = getelementptr inbounds nuw %struct.pysqlite_Blob, ptr %18, i32 0, i32 2
  %20 = load ptr, ptr %19, align 8, !tbaa !25
  %21 = icmp eq ptr %20, null
  br i1 %21, label %22, label %31

22:                                               ; preds = %17
  call void @llvm.lifetime.start.p0(i64 8, ptr %4) #6
  %23 = load ptr, ptr %3, align 8, !tbaa !3
  %24 = getelementptr inbounds nuw %struct.pysqlite_Blob, ptr %23, i32 0, i32 1
  %25 = load ptr, ptr %24, align 8, !tbaa !45
  %26 = getelementptr inbounds nuw %struct.pysqlite_Connection, ptr %25, i32 0, i32 2
  %27 = load ptr, ptr %26, align 8, !tbaa !51
  store ptr %27, ptr %4, align 8, !tbaa !3
  %28 = load ptr, ptr %4, align 8, !tbaa !3
  %29 = getelementptr inbounds nuw %struct.pysqlite_state, ptr %28, i32 0, i32 8
  %30 = load ptr, ptr %29, align 8, !tbaa !52
  call void @PyErr_SetString(ptr noundef %30, ptr noundef @.str.11)
  store i32 0, ptr %2, align 4
  call void @llvm.lifetime.end.p0(i64 8, ptr %4) #6
  br label %32

31:                                               ; preds = %17
  store i32 1, ptr %2, align 4
  br label %32

32:                                               ; preds = %31, %22, %16
  %33 = load i32, ptr %2, align 4
  ret i32 %33
}

; Function Attrs: nounwind uwtable
define internal ptr @blob_seek_impl(ptr noundef %0, i32 noundef %1, i32 noundef %2) #0 {
  %4 = alloca ptr, align 8
  %5 = alloca ptr, align 8
  %6 = alloca i32, align 4
  %7 = alloca i32, align 4
  %8 = alloca i32, align 4
  %9 = alloca i32, align 4
  store ptr %0, ptr %5, align 8, !tbaa !3
  store i32 %1, ptr %6, align 4, !tbaa !44
  store i32 %2, ptr %7, align 4, !tbaa !44
  %10 = load ptr, ptr %5, align 8, !tbaa !3
  %11 = call i32 @check_blob(ptr noundef %10)
  %12 = icmp ne i32 %11, 0
  br i1 %12, label %14, label %13

13:                                               ; preds = %3
  store ptr null, ptr %4, align 8
  br label %62

14:                                               ; preds = %3
  call void @llvm.lifetime.start.p0(i64 4, ptr %8) #6
  %15 = load ptr, ptr %5, align 8, !tbaa !3
  %16 = getelementptr inbounds nuw %struct.pysqlite_Blob, ptr %15, i32 0, i32 2
  %17 = load ptr, ptr %16, align 8, !tbaa !25
  %18 = call i32 @sqlite3_blob_bytes(ptr noundef %17)
  store i32 %18, ptr %8, align 4, !tbaa !44
  %19 = load i32, ptr %7, align 4, !tbaa !44
  switch i32 %19, label %44 [
    i32 0, label %46
    i32 1, label %20
    i32 2, label %34
  ]

20:                                               ; preds = %14
  %21 = load i32, ptr %6, align 4, !tbaa !44
  %22 = load ptr, ptr %5, align 8, !tbaa !3
  %23 = getelementptr inbounds nuw %struct.pysqlite_Blob, ptr %22, i32 0, i32 3
  %24 = load i32, ptr %23, align 8, !tbaa !53
  %25 = sub i32 2147483647, %24
  %26 = icmp sgt i32 %21, %25
  br i1 %26, label %27, label %28

27:                                               ; preds = %20
  br label %59

28:                                               ; preds = %20
  %29 = load ptr, ptr %5, align 8, !tbaa !3
  %30 = getelementptr inbounds nuw %struct.pysqlite_Blob, ptr %29, i32 0, i32 3
  %31 = load i32, ptr %30, align 8, !tbaa !53
  %32 = load i32, ptr %6, align 4, !tbaa !44
  %33 = add i32 %32, %31
  store i32 %33, ptr %6, align 4, !tbaa !44
  br label %46

34:                                               ; preds = %14
  %35 = load i32, ptr %6, align 4, !tbaa !44
  %36 = load i32, ptr %8, align 4, !tbaa !44
  %37 = sub i32 2147483647, %36
  %38 = icmp sgt i32 %35, %37
  br i1 %38, label %39, label %40

39:                                               ; preds = %34
  br label %59

40:                                               ; preds = %34
  %41 = load i32, ptr %8, align 4, !tbaa !44
  %42 = load i32, ptr %6, align 4, !tbaa !44
  %43 = add i32 %42, %41
  store i32 %43, ptr %6, align 4, !tbaa !44
  br label %46

44:                                               ; preds = %14
  %45 = load ptr, ptr @PyExc_ValueError, align 8, !tbaa !22
  call void @PyErr_SetString(ptr noundef %45, ptr noundef @.str.12)
  store ptr null, ptr %4, align 8
  store i32 1, ptr %9, align 4
  br label %61

46:                                               ; preds = %40, %28, %14
  %47 = load i32, ptr %6, align 4, !tbaa !44
  %48 = icmp slt i32 %47, 0
  br i1 %48, label %53, label %49

49:                                               ; preds = %46
  %50 = load i32, ptr %6, align 4, !tbaa !44
  %51 = load i32, ptr %8, align 4, !tbaa !44
  %52 = icmp sgt i32 %50, %51
  br i1 %52, label %53, label %55

53:                                               ; preds = %49, %46
  %54 = load ptr, ptr @PyExc_ValueError, align 8, !tbaa !22
  call void @PyErr_SetString(ptr noundef %54, ptr noundef @.str.13)
  store ptr null, ptr %4, align 8
  store i32 1, ptr %9, align 4
  br label %61

55:                                               ; preds = %49
  %56 = load i32, ptr %6, align 4, !tbaa !44
  %57 = load ptr, ptr %5, align 8, !tbaa !3
  %58 = getelementptr inbounds nuw %struct.pysqlite_Blob, ptr %57, i32 0, i32 3
  store i32 %56, ptr %58, align 8, !tbaa !53
  store ptr @_Py_NoneStruct, ptr %4, align 8
  store i32 1, ptr %9, align 4
  br label %61

59:                                               ; preds = %39, %27
  %60 = load ptr, ptr @PyExc_OverflowError, align 8, !tbaa !22
  call void @PyErr_SetString(ptr noundef %60, ptr noundef @.str.14)
  store ptr null, ptr %4, align 8
  store i32 1, ptr %9, align 4
  br label %61

61:                                               ; preds = %59, %55, %53, %44
  call void @llvm.lifetime.end.p0(i64 4, ptr %8) #6
  br label %62

62:                                               ; preds = %61, %13
  %63 = load ptr, ptr %4, align 8
  ret ptr %63
}

; Function Attrs: nounwind uwtable
define internal ptr @blob_seek(ptr noundef %0, ptr noundef %1, i64 noundef %2) #0 {
  %4 = alloca ptr, align 8
  %5 = alloca ptr, align 8
  %6 = alloca i64, align 8
  %7 = alloca ptr, align 8
  %8 = alloca i32, align 4
  %9 = alloca i32, align 4
  store ptr %0, ptr %4, align 8, !tbaa !22
  store ptr %1, ptr %5, align 8, !tbaa !47
  store i64 %2, ptr %6, align 8, !tbaa !7
  call void @llvm.lifetime.start.p0(i64 8, ptr %7) #6
  store ptr null, ptr %7, align 8, !tbaa !22
  call void @llvm.lifetime.start.p0(i64 4, ptr %8) #6
  call void @llvm.lifetime.start.p0(i64 4, ptr %9) #6
  store i32 0, ptr %9, align 4, !tbaa !44
  %10 = load i64, ptr %6, align 8, !tbaa !7
  %11 = icmp sle i64 1, %10
  br i1 %11, label %12, label %15

12:                                               ; preds = %3
  %13 = load i64, ptr %6, align 8, !tbaa !7
  %14 = icmp sle i64 %13, 2
  br i1 %14, label %20, label %15

15:                                               ; preds = %12, %3
  %16 = load i64, ptr %6, align 8, !tbaa !7
  %17 = call i32 @_PyArg_CheckPositional(ptr noundef @.str.7, i64 noundef %16, i64 noundef 1, i64 noundef 2)
  %18 = icmp ne i32 %17, 0
  br i1 %18, label %20, label %19

19:                                               ; preds = %15
  br label %52

20:                                               ; preds = %15, %12
  %21 = load ptr, ptr %5, align 8, !tbaa !47
  %22 = getelementptr ptr, ptr %21, i64 0
  %23 = load ptr, ptr %22, align 8, !tbaa !22
  %24 = call i32 @PyLong_AsInt(ptr noundef %23)
  store i32 %24, ptr %8, align 4, !tbaa !44
  %25 = load i32, ptr %8, align 4, !tbaa !44
  %26 = icmp eq i32 %25, -1
  br i1 %26, label %27, label %31

27:                                               ; preds = %20
  %28 = call ptr @PyErr_Occurred()
  %29 = icmp ne ptr %28, null
  br i1 %29, label %30, label %31

30:                                               ; preds = %27
  br label %52

31:                                               ; preds = %27, %20
  %32 = load i64, ptr %6, align 8, !tbaa !7
  %33 = icmp slt i64 %32, 2
  br i1 %33, label %34, label %35

34:                                               ; preds = %31
  br label %47

35:                                               ; preds = %31
  %36 = load ptr, ptr %5, align 8, !tbaa !47
  %37 = getelementptr ptr, ptr %36, i64 1
  %38 = load ptr, ptr %37, align 8, !tbaa !22
  %39 = call i32 @PyLong_AsInt(ptr noundef %38)
  store i32 %39, ptr %9, align 4, !tbaa !44
  %40 = load i32, ptr %9, align 4, !tbaa !44
  %41 = icmp eq i32 %40, -1
  br i1 %41, label %42, label %46

42:                                               ; preds = %35
  %43 = call ptr @PyErr_Occurred()
  %44 = icmp ne ptr %43, null
  br i1 %44, label %45, label %46

45:                                               ; preds = %42
  br label %52

46:                                               ; preds = %42, %35
  br label %47

47:                                               ; preds = %46, %34
  %48 = load ptr, ptr %4, align 8, !tbaa !22
  %49 = load i32, ptr %8, align 4, !tbaa !44
  %50 = load i32, ptr %9, align 4, !tbaa !44
  %51 = call ptr @blob_seek_impl(ptr noundef %48, i32 noundef %49, i32 noundef %50)
  store ptr %51, ptr %7, align 8, !tbaa !22
  br label %52

52:                                               ; preds = %47, %45, %30, %19
  %53 = load ptr, ptr %7, align 8, !tbaa !22
  call void @llvm.lifetime.end.p0(i64 4, ptr %9) #6
  call void @llvm.lifetime.end.p0(i64 4, ptr %8) #6
  call void @llvm.lifetime.end.p0(i64 8, ptr %7) #6
  ret ptr %53
}