; Function Attrs: nounwind uwtable
define internal noundef ptr @blob_seek(ptr noundef captures(none) %0, ptr noundef readonly captures(none) %1, i64 noundef %2) #0 {
  %4 = add i64 %2, -1
  %or.cond = icmp ult i64 %4, 2
  br i1 %or.cond, label %7, label %5

5:                                                ; preds = %3
  %6 = tail call i32 @_PyArg_CheckPositional(ptr noundef nonnull @.str.7, i64 noundef %2, i64 noundef 1, i64 noundef 2) #5
  %.not = icmp eq i32 %6, 0
  br i1 %.not, label %blob_seek_impl.exit, label %7

7:                                                ; preds = %3, %5
  %8 = load ptr, ptr %1, align 8, !tbaa !21
  %9 = tail call i32 @PyLong_AsInt(ptr noundef %8) #5
  %10 = icmp eq i32 %9, -1
  br i1 %10, label %11, label %13

11:                                               ; preds = %7
  %12 = tail call ptr @PyErr_Occurred() #5
  %.not14 = icmp eq ptr %12, null
  br i1 %.not14, label %13, label %blob_seek_impl.exit

13:                                               ; preds = %11, %7
  %14 = icmp slt i64 %2, 2
  br i1 %14, label %22, label %15

15:                                               ; preds = %13
  %16 = getelementptr i8, ptr %1, i64 8
  %17 = load ptr, ptr %16, align 8, !tbaa !21
  %18 = tail call i32 @PyLong_AsInt(ptr noundef %17) #5
  %19 = icmp eq i32 %18, -1
  br i1 %19, label %20, label %22

20:                                               ; preds = %15
  %21 = tail call ptr @PyErr_Occurred() #5
  %.not15 = icmp eq ptr %21, null
  br i1 %.not15, label %22, label %blob_seek_impl.exit

22:                                               ; preds = %15, %20, %13
  %.0 = phi i32 [ 0, %13 ], [ -1, %20 ], [ %18, %15 ]
  %23 = getelementptr inbounds nuw i8, ptr %0, i64 16
  %24 = load ptr, ptr %23, align 8, !tbaa !39
  %25 = tail call i32 @pysqlite_check_connection(ptr noundef %24) #5
  %.not.i.i = icmp eq i32 %25, 0
  br i1 %.not.i.i, label %blob_seek_impl.exit, label %26

26:                                               ; preds = %22
  %27 = load ptr, ptr %23, align 8, !tbaa !39
  %28 = tail call i32 @pysqlite_check_thread(ptr noundef %27) #5
  %.not5.i.i = icmp eq i32 %28, 0
  br i1 %.not5.i.i, label %blob_seek_impl.exit, label %29

29:                                               ; preds = %26
  %30 = getelementptr inbounds nuw i8, ptr %0, i64 24
  %31 = load ptr, ptr %30, align 8, !tbaa !22
  %32 = icmp eq ptr %31, null
  br i1 %32, label %33, label %check_blob.exit.i

33:                                               ; preds = %29
  %34 = load ptr, ptr %23, align 8, !tbaa !39
  %35 = getelementptr inbounds nuw i8, ptr %34, i64 24
  %36 = load ptr, ptr %35, align 8, !tbaa !41
  %37 = getelementptr inbounds nuw i8, ptr %36, i64 64
  %38 = load ptr, ptr %37, align 8, !tbaa !42
  tail call void @PyErr_SetString(ptr noundef %38, ptr noundef nonnull @.str.11) #5
  br label %blob_seek_impl.exit

check_blob.exit.i:                                ; preds = %29
  %39 = tail call i32 @sqlite3_blob_bytes(ptr noundef nonnull %31) #5
  switch i32 %.0, label %52 [
    i32 0, label %54
    i32 1, label %40
    i32 2, label %47
  ]

40:                                               ; preds = %check_blob.exit.i
  %41 = getelementptr inbounds nuw i8, ptr %0, i64 32
  %42 = load i32, ptr %41, align 8, !tbaa !53
  %43 = sub i32 2147483647, %42
  %44 = icmp sgt i32 %9, %43
  br i1 %44, label %61, label %45

45:                                               ; preds = %40
  %46 = add i32 %42, %9
  br label %54

47:                                               ; preds = %check_blob.exit.i
  %48 = sub i32 2147483647, %39
  %49 = icmp sgt i32 %9, %48
  br i1 %49, label %61, label %50

50:                                               ; preds = %47
  %51 = add i32 %39, %9
  br label %54

52:                                               ; preds = %check_blob.exit.i
  %53 = load ptr, ptr @PyExc_ValueError, align 8, !tbaa !21
  tail call void @PyErr_SetString(ptr noundef %53, ptr noundef nonnull @.str.12) #5
  br label %blob_seek_impl.exit

54:                                               ; preds = %50, %45, %check_blob.exit.i
  %.016.i = phi i32 [ %51, %50 ], [ %46, %45 ], [ %9, %check_blob.exit.i ]
  %55 = icmp slt i32 %.016.i, 0
  %56 = icmp sgt i32 %.016.i, %39
  %or.cond.i = select i1 %55, i1 true, i1 %56
  br i1 %or.cond.i, label %57, label %59

57:                                               ; preds = %54
  %58 = load ptr, ptr @PyExc_ValueError, align 8, !tbaa !21
  tail call void @PyErr_SetString(ptr noundef %58, ptr noundef nonnull @.str.13) #5
  br label %blob_seek_impl.exit

59:                                               ; preds = %54
  %60 = getelementptr inbounds nuw i8, ptr %0, i64 32
  store i32 %.016.i, ptr %60, align 8, !tbaa !53
  br label %blob_seek_impl.exit

61:                                               ; preds = %47, %40
  %62 = load ptr, ptr @PyExc_OverflowError, align 8, !tbaa !21
  tail call void @PyErr_SetString(ptr noundef %62, ptr noundef nonnull @.str.14) #5
  br label %blob_seek_impl.exit

blob_seek_impl.exit:                              ; preds = %61, %59, %57, %52, %33, %26, %22, %20, %11, %5
  %.012 = phi ptr [ null, %11 ], [ null, %20 ], [ null, %5 ], [ null, %52 ], [ null, %61 ], [ null, %57 ], [ @_Py_NoneStruct, %59 ], [ null, %33 ], [ null, %26 ], [ null, %22 ]
  ret ptr %.012
}